; Function Attrs: mustprogress noreturn nounwind uwtable
define dso_local void @_ZNK4node4quic8Endpoint13local_addressEv(ptr noalias nocapture readnone sret(%"class.node::SocketAddress") align 8 %agg.result, ptr nocapture noundef nonnull readonly align 8 dereferenceable(1520) %this) local_unnamed_addr #9 align 2 {
entry:
  %impl_.i.i = getelementptr inbounds i8, ptr %this, i64 440
  %0 = load ptr, ptr %impl_.i.i, align 8
  %cmp.i.not.i.i.not = icmp eq ptr %0, null
  br i1 %cmp.i.not.i.i.not, label %do.body5.i, label %do.body5

do.body5:                                         ; preds = %entry
  tail call void @_ZN4node6AssertERKNS_13AssertionInfoE(ptr noundef nonnull align 8 dereferenceable(24) @_ZZNK4node4quic8Endpoint13local_addressEvE4args) #21
  tail call void @abort() #22
  unreachable

do.body5.i:                                       ; preds = %entry
  tail call void @_ZN4node6AssertERKNS_13AssertionInfoE(ptr noundef nonnull align 8 dereferenceable(24) @_ZZNK4node4quic8Endpoint3UDP13local_addressEvE4args) #21, !noalias !136
  tail call void @abort() #22, !noalias !136
  unreachable
}